Certificate:
    Data:
        Version: 3 (0x2)
        Serial Number: 1 (0x1)
        Signature Algorithm: sha1WithRSAEncryption
        Issuer: CN=XtreemOS CA, O=XtreemOS Project, OU=XtreemOS Project Root Certification Authority
        Validity
            Not Before: Feb  6 15:38:36 2009 GMT
            Not After : Feb  6 15:38:36 2010 GMT
        Subject: O=CDA for xtreemos-localconfig, OU=cda, CN=localhost/cda
        Subject Public Key Info:
            Public Key Algorithm: rsaEncryption
            RSA Public Key: (1024 bit)
                Modulus (1024 bit):
                    00:d1:de:ca:cf:8d:47:63:ee:b6:3f:35:3b:72:f4:
                    e0:a9:3f:de:bc:45:d1:9b:1b:93:0e:d8:07:fe:45:
                    22:a5:ff:fa:6a:98:3e:6a:f4:ee:5e:a1:c1:b9:35:
                    47:dc:e0:71:37:ee:1a:70:cd:57:3a:ca:9b:13:a0:
                    e1:83:70:c5:77:12:e2:c6:9b:0e:f9:84:83:29:07:
                    76:89:38:01:b6:12:79:43:85:3a:52:4d:02:f2:2c:
                    a3:9f:e5:e9:26:7e:30:2c:24:e6:96:50:5f:e2:5a:
                    f2:f6:30:86:db:a4:16:9c:15:cd:8b:6c:81:97:f6:
                    fc:db:4c:20:24:18:8f:9f:0d
                Exponent: 65537 (0x10001)
        X509v3 extensions:
            Netscape Comment: 
                XtreemOS Certificate
            X509v3 Subject Key Identifier: 
                28:C3:37:02:C3:8E:9B:12:7A:F4:BC:A6:B7:B5:04:E1:2B:94:A9:CC
            X509v3 Authority Key Identifier: 
                keyid:0E:A4:0B:7B:61:31:91:37:FE:BB:E5:C3:EC:0A:01:10:BB:4C:DF:9B

            X509v3 Basic Constraints: 
                CA:TRUE
            X509v3 Subject Alternative Name: 
                DNS:localhost
            X509v3 Key Usage: 
                Digital Signature, Key Encipherment, Certificate Sign
    Signature Algorithm: sha1WithRSAEncryption
        b9:9c:ba:7e:3e:f1:08:85:a8:b5:9e:86:86:fb:ef:3a:19:13:
        f8:7a:04:5c:7a:b4:70:2e:5f:12:da:49:a7:9b:5d:ab:8b:f0:
        c1:90:09:b5:99:8b:52:f3:74:8d:1d:37:44:df:0c:84:cf:d4:
        52:a2:f4:30:b2:d6:0a:98:cf:6a:9a:aa:02:1d:80:a0:e2:9a:
        76:4d:cf:57:41:5c:ba:1e:40:03:cc:7c:77:89:97:c1:b6:37:
        64:ba:b1:94:0a:8d:91:e1:f2:08:82:66:ee:29:b0:58:46:17:
        75:c9:c4:93:83:f3:58:db:0b:df:ca:f4:51:42:f8:38:f4:4b:
        3b:bd:46:cc:41:aa:13:71:e5:bf:96:eb:94:92:58:46:5f:c6:
        57:d6:99:1a:10:86:44:dd:03:62:9f:47:42:9c:a3:b3:1d:27:
        0b:df:d7:55:9c:92:1d:44:67:33:24:99:ac:46:14:89:ce:07:
        3a:37:3d:93:e4:c3:cd:d7:fc:09:51:9a:0f:6e:e6:52:24:3a:
        67:a1:8a:77:3a:08:19:fa:ac:dd:8c:a2:ea:21:c0:55:8f:34:
        24:30:2b:51:e5:2b:9e:18:d0:44:1a:d4:28:d1:1d:7d:18:12:
        34:0c:10:fa:d1:1c:d7:bb:56:b5:68:cc:b7:bf:0e:f7:2c:00:
        e2:ba:42:69
-----BEGIN CERTIFICATE-----
MIIDRzCCAi+gAwIBAgIBATANBgkqhkiG9w0BAQUFADBpMRQwEgYDVQQDEwtYdHJl
ZW1PUyBDQTEZMBcGA1UEChMQWHRyZWVtT1MgUHJvamVjdDE2MDQGA1UECxMtWHRy
ZWVtT1MgUHJvamVjdCBSb290IENlcnRpZmljYXRpb24gQXV0aG9yaXR5MB4XDTA5
MDIwNjE1MzgzNloXDTEwMDIwNjE1MzgzNlowTTElMCMGA1UEChMcQ0RBIGZvciB4
dHJlZW1vcy1sb2NhbGNvbmZpZzEMMAoGA1UECxMDY2RhMRYwFAYDVQQDEw1sb2Nh
bGhvc3QvY2RhMIGfMA0GCSqGSIb3DQEBAQUAA4GNADCBiQKBgQDR3srPjUdj7rY/
NTty9OCpP968RdGbG5MO2Af+RSKl//pqmD5q9O5eocG5NUfc4HE37hpwzVc6ypsT
oOGDcMV3EuLGmw75hIMpB3aJOAG2EnlDhTpSTQLyLKOf5ekmfjAsJOaWUF/iWvL2
MIbbpBacFc2LbIGX9vzbTCAkGI+fDQIDAQABo4GZMIGWMCMGCWCGSAGG+EIBDQQW
FhRYdHJlZW1PUyBDZXJ0aWZpY2F0ZTAdBgNVHQ4EFgQUKMM3AsOOmxJ69Lymt7UE
4SuUqcwwHwYDVR0jBBgwFoAUDqQLe2ExkTf+u+XD7AoBELtM35swDAYDVR0TBAUw
AwEB/zAUBgNVHREEDTALgglsb2NhbGhvc3QwCwYDVR0PBAQDAgKkMA0GCSqGSIb3
DQEBBQUAA4IBAQC5nLp+PvEIhai1noaG++86GRP4egRcerRwLl8S2kmnm12ri/DB
kAm1mYtS83SNHTdE3wyEz9RSovQwstYKmM9qmqoCHYCg4pp2Tc9XQVy6HkADzHx3
iZfBtjdkurGUCo2R4fIIgmbuKbBYRhd1ycSTg/NY2wvfyvRRQvg49Es7vUbMQaoT
ceW/luuUklhGX8ZX1pkaEIZE3QNin0dCnKOzHScL39dVnJIdRGczJJmsRhSJzgc6
Nz2T5MPN1/wJUZoPbuZSJDpnoYp3OggZ+qzdjKLqIcBVjzQkMCtR5SueGNBEGtQo
0R19GBI0DBD60RzXu1a1aMy3vw73LADiukJp
-----END CERTIFICATE-----
