Certificate:
    Data:
        Version: 3 (0x2)
        Serial Number: 5 (0x5)
        Signature Algorithm: sha1WithRSAEncryption
        Issuer: CN=XtreemOS CA, O=XtreemOS Project, OU=XtreemOS Project Root Certification Authority
        Validity
            Not Before: Mar 20 11:19:41 2009 GMT
            Not After : Mar 20 11:19:41 2010 GMT
        Subject: O=EDF, OU=mrc, CN=xos1.edf.fr/mrc
        Subject Public Key Info:
            Public Key Algorithm: rsaEncryption
            RSA Public Key: (1024 bit)
                Modulus (1024 bit):
                    00:e4:33:3a:79:44:75:71:2d:2f:d8:2a:cc:0d:06:
                    e0:07:d3:1d:d5:bc:bd:3a:1a:68:a7:d8:53:1f:ee:
                    31:b7:cb:95:1c:dd:12:60:fb:4c:7d:7d:08:bd:8e:
                    44:bd:46:17:96:7e:7b:73:d4:62:c4:ad:2d:37:41:
                    e0:75:25:9e:b0:13:f2:89:a1:ad:32:5b:48:28:af:
                    da:03:0a:9a:b7:34:c6:44:71:8b:da:49:25:c3:ad:
                    06:96:de:98:11:37:2c:33:75:4f:1d:bd:ba:83:71:
                    e8:4e:c5:c8:0b:16:7a:cc:8b:08:94:a3:3d:3f:84:
                    b7:38:6f:d6:3b:b7:1e:49:f7
                Exponent: 65537 (0x10001)
        X509v3 extensions:
            Netscape Comment: 
                XtreemOS Certificate
            X509v3 Subject Key Identifier: 
                6D:FC:14:7F:B1:63:CE:AC:0D:D6:27:AF:CF:ED:7A:E4:10:19:6C:48
            X509v3 Authority Key Identifier: 
                DirName:/CN=XtreemOS CA/O=XtreemOS Project/OU=XtreemOS Project Root Certification Authority
                serial:B7:BF:6C:BB:67:49:19:82

            X509v3 Basic Constraints: 
                CA:FALSE
            X509v3 Subject Alternative Name: 
                DNS:xos1.edf.fr
            X509v3 Key Usage: 
                Digital Signature, Key Encipherment
    Signature Algorithm: sha1WithRSAEncryption
        25:0a:02:f5:fc:46:be:8b:b9:1d:0c:d2:36:b8:99:08:6c:a4:
        e7:13:a8:47:3a:25:7c:71:99:8c:6f:0d:18:2f:89:8d:3d:96:
        87:6f:41:c1:33:39:1e:2e:af:52:e0:bc:97:4b:f8:b3:d7:65:
        a5:98:e0:0f:e0:7b:9f:da:8b:78:3a:cd:49:39:bf:32:91:5c:
        84:f8:27:fe:db:2c:f2:71:46:c0:a7:93:40:a5:b8:7e:7e:d7:
        a7:79:5c:23:00:04:03:73:18:ae:db:a8:e2:4d:b5:d7:82:7f:
        96:fc:41:c9:b0:91:05:32:1b:dd:83:cc:a5:c7:aa:e3:43:48:
        0d:13:67:cd:c4:41:f9:3f:e5:da:c0:97:9c:76:92:a9:31:23:
        65:67:40:87:7d:d6:ce:2b:e1:1b:45:28:33:0f:42:f1:31:06:
        65:30:df:78:ca:e4:4e:4d:92:b8:86:5c:2e:53:ee:c9:11:35:
        ec:eb:84:f9:7f:be:bf:48:57:9b:91:8e:0d:ce:37:6a:7e:a9:
        c1:49:1b:53:4d:91:7c:da:33:e2:fb:fb:21:85:3c:17:5d:26:
        58:c1:4c:01:02:91:0b:9b:69:04:03:a2:a3:e6:1c:fd:80:52:
        0e:68:fb:ee:7d:af:bc:92:1b:b7:65:03:43:f6:29:19:50:d0:
        6e:b4:ac:af
-----BEGIN CERTIFICATE-----
MIIDlDCCAnygAwIBAgIBBTANBgkqhkiG9w0BAQUFADBpMRQwEgYDVQQDEwtYdHJl
ZW1PUyBDQTEZMBcGA1UEChMQWHRyZWVtT1MgUHJvamVjdDE2MDQGA1UECxMtWHRy
ZWVtT1MgUHJvamVjdCBSb290IENlcnRpZmljYXRpb24gQXV0aG9yaXR5MB4XDTA5
MDMyMDExMTk0MVoXDTEwMDMyMDExMTk0MVowNjEMMAoGA1UEChMDRURGMQwwCgYD
VQQLEwNtcmMxGDAWBgNVBAMTD3hvczEuZWRmLmZyL21yYzCBnzANBgkqhkiG9w0B
AQEFAAOBjQAwgYkCgYEA5DM6eUR1cS0v2CrMDQbgB9Md1by9Ohpop9hTH+4xt8uV
HN0SYPtMfX0IvY5EvUYXln57c9RixK0tN0HgdSWesBPyiaGtMltIKK/aAwqatzTG
RHGL2kklw60Glt6YETcsM3VPHb26g3HoTsXICxZ6zIsIlKM9P4S3OG/WO7ceSfcC
AwEAAaOB/TCB+jAjBglghkgBhvhCAQ0EFhYUWHRyZWVtT1MgQ2VydGlmaWNhdGUw
HQYDVR0OBBYEFG38FH+xY86sDdYnr8/teuQQGWxIMIGDBgNVHSMEfDB6oW2kazBp
MRQwEgYDVQQDEwtYdHJlZW1PUyBDQTEZMBcGA1UEChMQWHRyZWVtT1MgUHJvamVj
dDE2MDQGA1UECxMtWHRyZWVtT1MgUHJvamVjdCBSb290IENlcnRpZmljYXRpb24g
QXV0aG9yaXR5ggkAt79su2dJGYIwCQYDVR0TBAIwADAWBgNVHREEDzANggt4b3Mx
LmVkZi5mcjALBgNVHQ8EBAMCBaAwDQYJKoZIhvcNAQEFBQADggEBACUKAvX8Rr6L
uR0M0ja4mQhspOcTqEc6JXxxmYxvDRgviY09lodvQcEzOR4ur1LgvJdL+LPXZaWY
4A/ge5/ai3g6zUk5vzKRXIT4J/7bLPJxRsCnk0CluH5+16d5XCMABANzGK7bqOJN
tdeCf5b8QcmwkQUyG92DzKXHquNDSA0TZ83EQfk/5drAl5x2kqkxI2VnQId91s4r
4RtFKDMPQvExBmUw33jK5E5NkriGXC5T7skRNezrhPl/vr9IV5uRjg3ON2p+qcFJ
G1NNkXzaM+L7+yGFPBddJljBTAECkQubaQQDoqPmHP2AUg5o++59r7ySG7dlA0P2
KRlQ0G60rK8=
-----END CERTIFICATE-----
