Certificate:
    Data:
        Version: 3 (0x2)
        Serial Number: 9 (0x9)
        Signature Algorithm: sha1WithRSAEncryption
        Issuer: CN=XtreemOS CA, O=XtreemOS Project, OU=XtreemOS Project Root Certification Authority
        Validity
            Not Before: Mar 23 13:49:21 2009 GMT
            Not After : Mar 23 13:49:21 2010 GMT
        Subject: O=EDF, OU=rca, CN=xos1.edf.fr/rca
        Subject Public Key Info:
            Public Key Algorithm: rsaEncryption
            RSA Public Key: (1024 bit)
                Modulus (1024 bit):
                    00:c7:40:cc:71:31:ff:d6:d4:ea:3d:ce:88:13:2c:
                    42:3b:41:4d:84:5f:06:9d:53:5d:55:1b:50:b6:d2:
                    d7:00:4e:a0:dc:41:82:96:3c:7b:ab:5f:2a:c3:4b:
                    6e:11:8c:42:de:bf:a9:32:fa:45:24:4d:f8:3c:88:
                    1e:e8:84:bf:1a:e9:9b:0e:b3:7d:57:da:7c:9f:3b:
                    05:5d:74:7c:bf:14:3e:f9:87:87:ef:e2:79:cc:ee:
                    f8:47:bb:3c:47:19:6f:5b:f5:8e:a3:4d:aa:c8:45:
                    2e:d2:c1:04:ff:f7:da:54:5c:b3:a9:c4:dd:51:bc:
                    a8:6b:2e:dc:23:dd:6a:17:a5
                Exponent: 65537 (0x10001)
        X509v3 extensions:
            Netscape Comment: 
                XtreemOS Certificate
            X509v3 Subject Key Identifier: 
                EB:FD:5B:7E:17:D8:97:9F:B1:15:D1:60:F6:C4:E4:0E:0C:62:80:83
            X509v3 Authority Key Identifier: 
                DirName:/CN=XtreemOS CA/O=XtreemOS Project/OU=XtreemOS Project Root Certification Authority
                serial:BF:7E:38:FF:8D:F6:B7:1E

            X509v3 Basic Constraints: 
                CA:TRUE
            X509v3 Subject Alternative Name: 
                DNS:xos1.edf.fr
            X509v3 Key Usage: 
                Digital Signature, Key Encipherment, Certificate Sign
    Signature Algorithm: sha1WithRSAEncryption
        47:be:88:bb:7b:b4:eb:52:6c:e6:27:49:af:d4:f7:6a:4a:c2:
        18:14:85:6d:a0:6d:5f:81:93:6e:95:98:ee:d1:d5:c6:bf:10:
        50:f7:33:99:35:5f:a1:28:95:e7:14:d6:13:5c:2d:82:36:59:
        39:29:02:9c:36:05:4c:7f:1c:21:e3:95:2b:c4:f2:95:5f:16:
        8d:0a:86:f4:c1:eb:8d:4f:13:5e:27:e5:1e:f8:29:7e:6e:a5:
        d1:4f:d9:5e:25:a4:5c:23:3f:28:ae:bf:8b:13:f3:bd:5c:61:
        53:f0:93:16:dc:7f:49:b9:2c:02:e0:1c:64:43:c7:e4:3f:7e:
        5d:2f:e3:ea:de:02:a3:19:85:61:6f:38:e6:fe:ba:3b:1f:c9:
        af:5b:3e:21:80:5c:8d:9c:f1:bd:36:88:6c:35:49:6b:29:6d:
        f1:28:b6:03:84:30:4d:d0:81:b8:52:7c:1b:82:35:b6:e3:0b:
        c3:a0:e6:46:d5:fa:08:d8:f3:23:f8:01:a5:72:d1:41:a9:69:
        1a:c9:1f:75:8b:de:b6:3d:ee:23:69:b4:bc:b6:ec:2c:07:d0:
        4e:2c:6c:26:c3:92:7a:f8:1f:1e:ef:01:c7:68:34:ea:e3:dc:
        f1:9b:ba:19:af:01:db:54:3b:0c:b9:4e:8b:8d:54:41:52:57:
        63:df:71:65
-----BEGIN CERTIFICATE-----
MIIDmDCCAoCgAwIBAgIBCTANBgkqhkiG9w0BAQUFADBpMRQwEgYDVQQDEwtYdHJl
ZW1PUyBDQTEZMBcGA1UEChMQWHRyZWVtT1MgUHJvamVjdDE2MDQGA1UECxMtWHRy
ZWVtT1MgUHJvamVjdCBSb290IENlcnRpZmljYXRpb24gQXV0aG9yaXR5MB4XDTA5
MDMyMzEzNDkyMVoXDTEwMDMyMzEzNDkyMVowNjEMMAoGA1UEChMDRURGMQwwCgYD
VQQLEwNyY2ExGDAWBgNVBAMTD3hvczEuZWRmLmZyL3JjYTCBnzANBgkqhkiG9w0B
AQEFAAOBjQAwgYkCgYEAx0DMcTH/1tTqPc6IEyxCO0FNhF8GnVNdVRtQttLXAE6g
3EGCljx7q18qw0tuEYxC3r+pMvpFJE34PIge6IS/GumbDrN9V9p8nzsFXXR8vxQ+
+YeH7+J5zO74R7s8RxlvW/WOo02qyEUu0sEE//faVFyzqcTdUbyoay7cI91qF6UC
AwEAAaOCAQAwgf0wIwYJYIZIAYb4QgENBBYWFFh0cmVlbU9TIENlcnRpZmljYXRl
MB0GA1UdDgQWBBTr/Vt+F9iXn7EV0WD2xOQODGKAgzCBgwYDVR0jBHwweqFtpGsw
aTEUMBIGA1UEAxMLWHRyZWVtT1MgQ0ExGTAXBgNVBAoTEFh0cmVlbU9TIFByb2pl
Y3QxNjA0BgNVBAsTLVh0cmVlbU9TIFByb2plY3QgUm9vdCBDZXJ0aWZpY2F0aW9u
IEF1dGhvcml0eYIJAL9+OP+N9rceMAwGA1UdEwQFMAMBAf8wFgYDVR0RBA8wDYIL
eG9zMS5lZGYuZnIwCwYDVR0PBAQDAgKkMA0GCSqGSIb3DQEBBQUAA4IBAQBHvoi7
e7TrUmzmJ0mv1PdqSsIYFIVtoG1fgZNulZju0dXGvxBQ9zOZNV+hKJXnFNYTXC2C
Nlk5KQKcNgVMfxwh45UrxPKVXxaNCob0weuNTxNeJ+Ue+Cl+bqXRT9leJaRcIz8o
rr+LE/O9XGFT8JMW3H9JuSwC4BxkQ8fkP35dL+Pq3gKjGYVhbzjm/ro7H8mvWz4h
gFyNnPG9NohsNUlrKW3xKLYDhDBN0IG4UnwbgjW24wvDoOZG1foI2PMj+AGlctFB
qWkayR91i962Pe4jabS8tuwsB9BOLGwmw5J6+B8e7wHHaDTq49zxm7oZrwHbVDsM
uU6LjVRBUldj33Fl
-----END CERTIFICATE-----
