Certificate:
    Data:
        Version: 3 (0x2)
        Serial Number: 1 (0x1)
        Signature Algorithm: sha1WithRSAEncryption
        Issuer: CN=XtreemOS CA, O=XtreemOS Project, OU=XtreemOS Project Root Certification Authority
        Validity
            Not Before: Sep 11 12:06:33 2009 GMT
            Not After : Sep 11 12:06:33 2010 GMT
        Subject: O=INRIA, OU=cda, CN=xos-core.xtreemos.eu/cda
        Subject Public Key Info:
            Public Key Algorithm: rsaEncryption
            RSA Public Key: (1024 bit)
                Modulus (1024 bit):
                    00:cf:23:b8:b8:e2:0d:fa:7c:4c:5b:41:86:14:b3:
                    d3:86:fe:61:5c:fb:ae:9a:0d:a0:ed:42:2c:36:d1:
                    47:5d:6d:52:8c:6f:ea:8e:5d:23:98:f1:43:74:07:
                    6e:02:c2:b4:da:ea:68:38:ce:1c:97:df:27:41:21:
                    da:22:15:3a:ff:9f:26:78:d2:1f:94:c7:39:f7:b6:
                    83:e0:35:24:54:de:8e:11:01:3b:9c:58:06:c9:e9:
                    5e:b8:1d:a3:03:f1:4d:9d:c9:07:ba:f3:b3:a2:85:
                    2d:2e:3f:26:a1:5d:a8:e1:25:2b:f2:17:d0:9a:f7:
                    51:c2:a2:d8:70:e7:46:3c:41
                Exponent: 65537 (0x10001)
        X509v3 extensions:
            Netscape Comment: 
                XtreemOS Certificate
            X509v3 Subject Key Identifier: 
                AF:E0:F6:37:B7:82:6D:B3:DD:7F:F8:B6:1E:C9:39:25:C1:89:60:3B
            X509v3 Authority Key Identifier: 
                DirName:/CN=XtreemOS CA/O=XtreemOS Project/OU=XtreemOS Project Root Certification Authority
                serial:AA:BB:9E:67:D3:12:AD:EC

            X509v3 Basic Constraints: 
                CA:TRUE
            X509v3 Subject Alternative Name: 
                DNS:xos-core.xtreemos.eu
            X509v3 Key Usage: 
                Digital Signature, Key Encipherment, Certificate Sign
    Signature Algorithm: sha1WithRSAEncryption
        79:72:8a:a5:44:23:83:d0:7a:5d:17:82:4f:aa:05:ed:01:ed:
        ab:68:ec:b6:08:26:8b:9a:a5:7e:38:c2:f1:90:71:84:d7:dc:
        72:28:d8:1e:22:5d:d9:7a:a4:47:06:55:df:f6:6e:3a:4d:10:
        40:6e:9c:5b:33:e6:08:98:aa:44:da:3b:bf:c9:f7:3c:6c:58:
        e4:30:44:9c:cd:b7:76:66:0c:43:95:ad:b3:6b:51:c4:fb:a9:
        59:6a:54:25:50:76:72:92:5e:41:92:b3:6b:d3:e0:91:3a:8b:
        58:ff:57:ef:2c:9d:4e:23:72:05:8d:84:9b:be:37:91:a4:10:
        15:dc:23:4e:59:c3:b6:55:f4:2f:8c:45:5e:6b:71:96:f2:10:
        dc:41:a0:1a:6f:67:e1:05:2c:9b:3a:c5:17:63:fe:e1:6d:3e:
        8b:c3:3f:b4:61:ca:a8:bf:7d:09:b0:18:dd:8e:e5:4d:df:54:
        5f:d8:64:50:bc:a8:3e:34:18:2a:6b:e2:56:a1:df:15:c1:84:
        eb:4f:58:cb:66:bf:a9:32:ab:d3:c9:8e:2e:ed:c8:b2:ec:d1:
        b4:b6:bf:54:a1:ca:67:ca:29:86:3c:29:6b:91:c3:c2:91:43:
        74:0b:c6:b6:5a:b7:fa:54:fd:6a:3f:a1:cb:f3:db:5e:f0:58:
        37:9b:85:6d
-----BEGIN CERTIFICATE-----
MIIDrTCCApWgAwIBAgIBATANBgkqhkiG9w0BAQUFADBpMRQwEgYDVQQDEwtYdHJl
ZW1PUyBDQTEZMBcGA1UEChMQWHRyZWVtT1MgUHJvamVjdDE2MDQGA1UECxMtWHRy
ZWVtT1MgUHJvamVjdCBSb290IENlcnRpZmljYXRpb24gQXV0aG9yaXR5MB4XDTA5
MDkxMTEyMDYzM1oXDTEwMDkxMTEyMDYzM1owQTEOMAwGA1UEChMFSU5SSUExDDAK
BgNVBAsTA2NkYTEhMB8GA1UEAxMYeG9zLWNvcmUueHRyZWVtb3MuZXUvY2RhMIGf
MA0GCSqGSIb3DQEBAQUAA4GNADCBiQKBgQDPI7i44g36fExbQYYUs9OG/mFc+66a
DaDtQiw20UddbVKMb+qOXSOY8UN0B24CwrTa6mg4zhyX3ydBIdoiFTr/nyZ40h+U
xzn3toPgNSRU3o4RATucWAbJ6V64HaMD8U2dyQe687OihS0uPyahXajhJSvyF9Ca
91HCothw50Y8QQIDAQABo4IBCjCCAQYwIwYJYIZIAYb4QgENBBYWFFh0cmVlbU9T
IENlcnRpZmljYXRlMB0GA1UdDgQWBBSv4PY3t4Jts91/+LYeyTklwYlgOzCBgwYD
VR0jBHwweqFtpGswaTEUMBIGA1UEAxMLWHRyZWVtT1MgQ0ExGTAXBgNVBAoTEFh0
cmVlbU9TIFByb2plY3QxNjA0BgNVBAsTLVh0cmVlbU9TIFByb2plY3QgUm9vdCBD
ZXJ0aWZpY2F0aW9uIEF1dGhvcml0eYIJAKq7nmfTEq3sMAwGA1UdEwQFMAMBAf8w
HwYDVR0RBBgwFoIUeG9zLWNvcmUueHRyZWVtb3MuZXUwCwYDVR0PBAQDAgKkMA0G
CSqGSIb3DQEBBQUAA4IBAQB5coqlRCOD0HpdF4JPqgXtAe2raOy2CCaLmqV+OMLx
kHGE19xyKNgeIl3ZeqRHBlXf9m46TRBAbpxbM+YImKpE2ju/yfc8bFjkMESczbd2
ZgxDla2za1HE+6lZalQlUHZykl5BkrNr0+CROotY/1fvLJ1OI3IFjYSbvjeRpBAV
3CNOWcO2VfQvjEVea3GW8hDcQaAab2fhBSybOsUXY/7hbT6Lwz+0Ycqov30JsBjd
juVN31Rf2GRQvKg+NBgqa+JWod8VwYTrT1jLZr+pMqvTyY4u7ciy7NG0tr9Uocpn
yimGPClrkcPCkUN0C8a2Wrf6VP1qP6HL89te8Fg3m4Vt
-----END CERTIFICATE-----
