Certificate:
    Data:
        Version: 3 (0x2)
        Serial Number: 10 (0xa)
        Signature Algorithm: sha1WithRSAEncryption
        Issuer: CN=XtreemOS CA, O=XtreemOS Project, OU=XtreemOS Project Root Certification Authority
        Validity
            Not Before: Mar 23 15:45:04 2009 GMT
            Not After : Mar 23 15:45:04 2010 GMT
        Subject: O=EDF, OU=mrc, CN=xos1.edf.fr/mrc
        Subject Public Key Info:
            Public Key Algorithm: rsaEncryption
            RSA Public Key: (1024 bit)
                Modulus (1024 bit):
                    00:f9:a2:af:5c:91:8f:de:0f:07:ea:3b:a1:f7:13:
                    51:72:1d:b4:ce:b2:38:ab:0d:76:4f:34:9f:84:97:
                    88:e7:b6:d5:20:23:23:7b:7a:27:e1:36:77:f0:61:
                    a8:45:99:02:2a:20:c1:2e:a8:42:c9:62:87:20:e9:
                    b0:45:0e:75:84:b3:f8:58:e4:cb:10:e0:c1:b1:d7:
                    0c:2d:ab:23:24:38:fa:4a:bf:33:76:7e:2a:ca:12:
                    52:83:24:94:fe:94:9e:1a:e4:27:a0:38:b9:0a:8f:
                    ed:fe:78:c2:e1:25:ee:07:7c:01:cd:ba:f5:88:c5:
                    dc:ed:c7:6e:94:5d:b2:d7:51
                Exponent: 65537 (0x10001)
        X509v3 extensions:
            Netscape Comment: 
                XtreemOS Certificate
            X509v3 Subject Key Identifier: 
                0B:7E:EA:4E:BF:D1:1F:19:DE:25:71:10:1B:DE:3A:A6:FD:68:DF:B3
            X509v3 Authority Key Identifier: 
                DirName:/CN=XtreemOS CA/O=XtreemOS Project/OU=XtreemOS Project Root Certification Authority
                serial:BF:7E:38:FF:8D:F6:B7:1E

            X509v3 Basic Constraints: 
                CA:FALSE
            X509v3 Subject Alternative Name: 
                DNS:xos1.edf.fr
            X509v3 Key Usage: 
                Digital Signature, Key Encipherment
    Signature Algorithm: sha1WithRSAEncryption
        25:1b:d0:ea:e3:c8:2a:4d:ac:e4:40:16:00:33:87:be:8a:f7:
        5d:0e:f6:b2:3e:5e:2d:a7:63:a9:7a:4f:64:71:6d:3c:79:d0:
        6e:c5:84:a3:95:ff:ed:17:ce:38:ad:24:4e:76:be:e8:6b:3a:
        c1:27:8d:e9:3b:04:01:74:3a:1b:8e:ae:5e:9a:65:c8:95:22:
        b5:76:30:ec:eb:8a:7e:d7:c1:2a:83:04:15:0f:0f:45:de:2b:
        5b:21:b0:70:3b:55:d6:45:3c:d8:a6:28:1b:17:39:1f:9e:32:
        ec:3e:fd:48:91:53:c9:92:85:d1:89:6f:20:01:a9:b1:fe:10:
        1e:c7:01:71:0a:4b:fb:7e:bf:94:7a:68:49:01:bd:12:9c:1a:
        17:13:52:ce:3a:99:3d:4e:9d:40:17:0f:71:b4:74:af:2b:c5:
        d0:a8:c8:f7:1f:b5:1a:c9:24:20:38:e2:c7:b5:41:8a:7d:cd:
        0e:7a:e4:20:e0:58:97:16:44:2f:a8:24:9a:16:59:e3:84:43:
        59:04:29:36:cc:7c:8d:4d:80:9f:ae:c7:91:48:d2:f8:a7:b1:
        2d:93:62:57:79:80:c7:1f:c8:4c:c3:8d:cb:ad:89:ee:5f:b3:
        76:c6:f9:aa:7a:d3:1a:2d:85:df:6b:31:7c:0d:a6:e8:6b:0e:
        63:8d:a9:c2
-----BEGIN CERTIFICATE-----
MIIDlDCCAnygAwIBAgIBCjANBgkqhkiG9w0BAQUFADBpMRQwEgYDVQQDEwtYdHJl
ZW1PUyBDQTEZMBcGA1UEChMQWHRyZWVtT1MgUHJvamVjdDE2MDQGA1UECxMtWHRy
ZWVtT1MgUHJvamVjdCBSb290IENlcnRpZmljYXRpb24gQXV0aG9yaXR5MB4XDTA5
MDMyMzE1NDUwNFoXDTEwMDMyMzE1NDUwNFowNjEMMAoGA1UEChMDRURGMQwwCgYD
VQQLEwNtcmMxGDAWBgNVBAMTD3hvczEuZWRmLmZyL21yYzCBnzANBgkqhkiG9w0B
AQEFAAOBjQAwgYkCgYEA+aKvXJGP3g8H6juh9xNRch20zrI4qw12TzSfhJeI57bV
ICMje3on4TZ38GGoRZkCKiDBLqhCyWKHIOmwRQ51hLP4WOTLEODBsdcMLasjJDj6
Sr8zdn4qyhJSgySU/pSeGuQnoDi5Co/t/njC4SXuB3wBzbr1iMXc7cdulF2y11EC
AwEAAaOB/TCB+jAjBglghkgBhvhCAQ0EFhYUWHRyZWVtT1MgQ2VydGlmaWNhdGUw
HQYDVR0OBBYEFAt+6k6/0R8Z3iVxEBveOqb9aN+zMIGDBgNVHSMEfDB6oW2kazBp
MRQwEgYDVQQDEwtYdHJlZW1PUyBDQTEZMBcGA1UEChMQWHRyZWVtT1MgUHJvamVj
dDE2MDQGA1UECxMtWHRyZWVtT1MgUHJvamVjdCBSb290IENlcnRpZmljYXRpb24g
QXV0aG9yaXR5ggkAv344/432tx4wCQYDVR0TBAIwADAWBgNVHREEDzANggt4b3Mx
LmVkZi5mcjALBgNVHQ8EBAMCBaAwDQYJKoZIhvcNAQEFBQADggEBACUb0OrjyCpN
rORAFgAzh76K910O9rI+Xi2nY6l6T2RxbTx50G7FhKOV/+0XzjitJE52vuhrOsEn
jek7BAF0OhuOrl6aZciVIrV2MOzrin7XwSqDBBUPD0XeK1shsHA7VdZFPNimKBsX
OR+eMuw+/UiRU8mShdGJbyABqbH+EB7HAXEKS/t+v5R6aEkBvRKcGhcTUs46mT1O
nUAXD3G0dK8rxdCoyPcftRrJJCA44se1QYp9zQ565CDgWJcWRC+oJJoWWeOEQ1kE
KTbMfI1NgJ+ux5FI0vinsS2TYld5gMcfyEzDjcutie5fs3bG+ap60xothd9rMXwN
puhrDmONqcI=
-----END CERTIFICATE-----
